target datalayout = "e-m:e-p270:32:32-p271:32:32-p272:64:64-i64:64-i128:128-f80:128-n8:16:32:64-S128"
target triple = "x86_64-pc-linux-gnu"

%struct._object = type { %union.anon, ptr }
%union.anon = type { i64 }

@.str.8 = private unnamed_addr constant [31 x i8] c"i:call_state_registration_func\00", align 1
@_Py_NoneStruct = external global %struct._object, align 8

; Function Attrs: nounwind uwtable
define internal ptr @call_state_registration_func(ptr noundef %0, ptr noundef %1) #0 {
  %3 = alloca ptr, align 8
  %4 = alloca ptr, align 8
  %5 = alloca ptr, align 8
  %6 = alloca i32, align 4
  %7 = alloca i32, align 4
  %8 = alloca ptr, align 8
  %9 = alloca i32, align 4
  store ptr %0, ptr %4, align 8, !tbaa !3
  store ptr %1, ptr %5, align 8, !tbaa !3
  call void @llvm.lifetime.start.p0(i64 4, ptr %6) #5
  call void @llvm.lifetime.start.p0(i64 4, ptr %7) #5
  call void @llvm.lifetime.start.p0(i64 8, ptr %8) #5
  %10 = load ptr, ptr %4, align 8, !tbaa !3
  %11 = call ptr @PyModule_GetDef(ptr noundef %10)
  store ptr %11, ptr %8, align 8, !tbaa !11
  %12 = load ptr, ptr %8, align 8, !tbaa !11
  %13 = icmp eq ptr %12, null
  br i1 %13, label %14, label %15

14:                                               ; preds = %2
  store ptr null, ptr %3, align 8
  store i32 1, ptr %9, align 4
  br label %46

15:                                               ; preds = %2
  %16 = load ptr, ptr %5, align 8, !tbaa !3
  %17 = call i32 (ptr, ptr, ...) @PyArg_ParseTuple(ptr noundef %16, ptr noundef @.str.8, ptr noundef %6)
  %18 = icmp ne i32 %17, 0
  br i1 %18, label %20, label %19

19:                                               ; preds = %15
  store ptr null, ptr %3, align 8
  store i32 1, ptr %9, align 4
  br label %46

20:                                               ; preds = %15
  %21 = load i32, ptr %6, align 4, !tbaa !13
  switch i32 %21, label %45 [
    i32 0, label %22
    i32 1, label %30
    i32 2, label %38
  ]

22:                                               ; preds = %20
  %23 = load ptr, ptr %8, align 8, !tbaa !11
  %24 = call ptr @PyState_FindModule(ptr noundef %23)
  store ptr %24, ptr %4, align 8, !tbaa !3
  %25 = load ptr, ptr %4, align 8, !tbaa !3
  %26 = icmp eq ptr %25, null
  br i1 %26, label %27, label %28

27:                                               ; preds = %22
  store ptr @_Py_NoneStruct, ptr %3, align 8
  store i32 1, ptr %9, align 4
  br label %46

28:                                               ; preds = %22
  %29 = load ptr, ptr %4, align 8, !tbaa !3
  store ptr %29, ptr %3, align 8
  store i32 1, ptr %9, align 4
  br label %46

30:                                               ; preds = %20
  %31 = load ptr, ptr %4, align 8, !tbaa !3
  %32 = load ptr, ptr %8, align 8, !tbaa !11
  %33 = call i32 @PyState_AddModule(ptr noundef %31, ptr noundef %32)
  store i32 %33, ptr %7, align 4, !tbaa !13
  %34 = load i32, ptr %7, align 4, !tbaa !13
  %35 = icmp ne i32 %34, 0
  br i1 %35, label %36, label %37

36:                                               ; preds = %30
  store ptr null, ptr %3, align 8
  store i32 1, ptr %9, align 4
  br label %46

37:                                               ; preds = %30
  br label %45

38:                                               ; preds = %20
  %39 = load ptr, ptr %8, align 8, !tbaa !11
  %40 = call i32 @PyState_RemoveModule(ptr noundef %39)
  store i32 %40, ptr %7, align 4, !tbaa !13
  %41 = load i32, ptr %7, align 4, !tbaa !13
  %42 = icmp ne i32 %41, 0
  br i1 %42, label %43, label %44

43:                                               ; preds = %38
  store ptr null, ptr %3, align 8
  store i32 1, ptr %9, align 4
  br label %46

44:                                               ; preds = %38
  br label %45

45:                                               ; preds = %20, %44, %37
  store ptr @_Py_NoneStruct, ptr %3, align 8
  store i32 1, ptr %9, align 4
  br label %46

46:                                               ; preds = %45, %43, %36, %28, %27, %19, %14
  call void @llvm.lifetime.end.p0(i64 8, ptr %8) #5
  call void @llvm.lifetime.end.p0(i64 4, ptr %7) #5
  call void @llvm.lifetime.end.p0(i64 4, ptr %6) #5
  %47 = load ptr, ptr %3, align 8
  ret ptr %47
}