; Function Attrs: nounwind uwtable
define internal ptr @call_state_registration_func(ptr noundef %0, ptr noundef %1) #0 {
  %3 = alloca i32, align 4
  call void @llvm.lifetime.start.p0(i64 4, ptr nonnull %3) #4
  %4 = tail call ptr @PyModule_GetDef(ptr noundef %0) #4
  %5 = icmp eq ptr %4, null
  br i1 %5, label %18, label %6

6:                                                ; preds = %2
  %7 = call i32 (ptr, ptr, ...) @PyArg_ParseTuple(ptr noundef %1, ptr noundef nonnull @.str.8, ptr noundef nonnull %3) #4
  %.not = icmp eq i32 %7, 0
  br i1 %.not, label %18, label %8

8:                                                ; preds = %6
  %9 = load i32, ptr %3, align 4, !tbaa !11
  switch i32 %9, label %17 [
    i32 0, label %10
    i32 1, label %13
    i32 2, label %15
  ]

10:                                               ; preds = %8
  %11 = call ptr @PyState_FindModule(ptr noundef nonnull %4) #4
  %12 = icmp eq ptr %11, null
  %_Py_NoneStruct. = select i1 %12, ptr @_Py_NoneStruct, ptr %11
  br label %18

13:                                               ; preds = %8
  %14 = call i32 @PyState_AddModule(ptr noundef %0, ptr noundef nonnull %4) #4
  %.not14 = icmp eq i32 %14, 0
  br i1 %.not14, label %17, label %18

15:                                               ; preds = %8
  %16 = call i32 @PyState_RemoveModule(ptr noundef nonnull %4) #4
  %.not13 = icmp eq i32 %16, 0
  br i1 %.not13, label %17, label %18

17:                                               ; preds = %15, %13, %8
  br label %18

18:                                               ; preds = %15, %13, %10, %6, %2, %17
  %.0 = phi ptr [ @_Py_NoneStruct, %17 ], [ null, %2 ], [ null, %6 ], [ %_Py_NoneStruct., %10 ], [ null, %13 ], [ null, %15 ]
  call void @llvm.lifetime.end.p0(i64 4, ptr nonnull %3) #4
  ret ptr %.0
}